; Function Attrs: nounwind uwtable
define ptr @l_Lean_mkNoConfusionEnum_mkNoConfusion___lambda__3(ptr noundef %0, ptr noundef %1, ptr noundef %2, ptr noundef %3, ptr noundef %4, ptr noundef %5, ptr noundef %6, ptr noundef %7, ptr noundef %8, ptr noundef %9, ptr noundef %10, ptr noundef %11, ptr noundef %12, ptr noundef %13) #0 {
  tail call void @lean_inc_heartbeat() #4
  %15 = tail call noalias ptr @mi_malloc_small(i64 noundef 88) #4
  %16 = icmp eq ptr %15, null
  br i1 %16, label %17, label %lean_alloc_closure.exit

17:                                               ; preds = %14
  tail call void @lean_internal_panic_out_of_memory() #5
  unreachable

lean_alloc_closure.exit:                          ; preds = %14
  %18 = getelementptr inbounds nuw i8, ptr %15, i64 4
  store i32 1, ptr %15, align 4, !tbaa !4
  store i32 -184549288, ptr %18, align 4
  %19 = getelementptr inbounds nuw i8, ptr %15, i64 8
  store ptr @l_Lean_mkNoConfusionEnum_mkNoConfusion___lambda__2, ptr %19, align 8, !tbaa !10
  %20 = getelementptr inbounds nuw i8, ptr %15, i64 16
  store i16 14, ptr %20, align 8, !tbaa !14
  %21 = getelementptr inbounds nuw i8, ptr %15, i64 18
  store i16 8, ptr %21, align 2, !tbaa !14
  %22 = getelementptr inbounds nuw i8, ptr %15, i64 24
  store ptr %8, ptr %22, align 8, !tbaa !10
  %23 = getelementptr inbounds nuw i8, ptr %15, i64 32
  store ptr %0, ptr %23, align 8, !tbaa !10
  %24 = getelementptr inbounds nuw i8, ptr %15, i64 40
  store ptr %1, ptr %24, align 8, !tbaa !10
  %25 = getelementptr inbounds nuw i8, ptr %15, i64 48
  store ptr %2, ptr %25, align 8, !tbaa !10
  %26 = getelementptr inbounds nuw i8, ptr %15, i64 56
  store ptr %3, ptr %26, align 8, !tbaa !10
  %27 = getelementptr inbounds nuw i8, ptr %15, i64 64
  store ptr %4, ptr %27, align 8, !tbaa !10
  %28 = getelementptr inbounds nuw i8, ptr %15, i64 72
  store ptr %5, ptr %28, align 8, !tbaa !10
  %29 = getelementptr inbounds nuw i8, ptr %15, i64 80
  store ptr %6, ptr %29, align 8, !tbaa !10
  %30 = load ptr, ptr @l_Lean_mkNoConfusionEnum_mkNoConfusionType___lambda__2___closed__2, align 8, !tbaa !10
  %31 = tail call ptr @l_Lean_Meta_withLocalDecl___at_Lean_Meta_addPPExplicitToExposeDiff_visit___spec__4___rarg(ptr noundef %30, i8 noundef zeroext 1, ptr noundef %7, ptr noundef nonnull %15, i8 noundef zeroext 0, ptr noundef %9, ptr noundef %10, ptr noundef %11, ptr noundef %12, ptr noundef %13) #4
  ret ptr %31
}